target datalayout = "e-m:e-p270:32:32-p271:32:32-p272:64:64-i64:64-i128:128-f80:128-n8:16:32:64-S128"
target triple = "x86_64-pc-linux-gnu"

@rb_cUnboundMethod = dso_local global i64 0, align 8

; Function Attrs: nounwind sspstrong uwtable
define internal i64 @mnew_from_me(ptr noundef %0, i64 noundef %1, i64 noundef %2, i64 noundef %3, i64 noundef %4, i64 noundef %5, i32 noundef %6) #0 {
  %8 = alloca ptr, align 8
  %9 = alloca i64, align 8
  %10 = alloca i64, align 8
  %11 = alloca i64, align 8
  %12 = alloca i64, align 8
  %13 = alloca i64, align 8
  %14 = alloca i32, align 4
  store ptr %0, ptr %8, align 8, !tbaa !108
  store i64 %1, ptr %9, align 8, !tbaa !7
  store i64 %2, ptr %10, align 8, !tbaa !7
  store i64 %3, ptr %11, align 8, !tbaa !7
  store i64 %4, ptr %12, align 8, !tbaa !7
  store i64 %5, ptr %13, align 8, !tbaa !7
  store i32 %6, ptr %14, align 4, !tbaa !36
  %15 = load ptr, ptr %8, align 8, !tbaa !108
  %16 = load i64, ptr %9, align 8, !tbaa !7
  %17 = load i64, ptr %10, align 8, !tbaa !7
  %18 = load i64, ptr %11, align 8, !tbaa !7
  %19 = load i64, ptr %12, align 8, !tbaa !7
  %20 = load i64, ptr %13, align 8, !tbaa !7
  %21 = load i32, ptr %14, align 4, !tbaa !36
  %22 = call i64 @mnew_internal(ptr noundef %15, i64 noundef %16, i64 noundef %17, i64 noundef %18, i64 noundef %19, i64 noundef %20, i32 noundef %21, i32 noundef 1)
  ret i64 %22
}

; Function Attrs: nounwind sspstrong uwtable
define internal i64 @mnew_unbound(i64 noundef %0, i64 noundef %1, i64 noundef %2, i32 noundef %3) #0 {
  %5 = alloca i64, align 8
  %6 = alloca i64, align 8
  %7 = alloca i64, align 8
  %8 = alloca i32, align 4
  %9 = alloca ptr, align 8
  %10 = alloca i64, align 8
  store i64 %0, ptr %5, align 8, !tbaa !7
  store i64 %1, ptr %6, align 8, !tbaa !7
  store i64 %2, ptr %7, align 8, !tbaa !7
  store i32 %3, ptr %8, align 4, !tbaa !36
  call void @llvm.lifetime.start.p0(i64 8, ptr %9) #25
  call void @llvm.lifetime.start.p0(i64 8, ptr %10) #25
  store i64 4, ptr %10, align 8, !tbaa !7
  %11 = load i64, ptr %5, align 8, !tbaa !7
  %12 = load i64, ptr %6, align 8, !tbaa !7
  %13 = call ptr @rb_method_entry_with_refinements(i64 noundef %11, i64 noundef %12, ptr noundef %10)
  store ptr %13, ptr %9, align 8, !tbaa !108
  %14 = load ptr, ptr %9, align 8, !tbaa !108
  %15 = load i64, ptr %5, align 8, !tbaa !7
  %16 = load i64, ptr %10, align 8, !tbaa !7
  %17 = load i64, ptr %6, align 8, !tbaa !7
  %18 = load i64, ptr %7, align 8, !tbaa !7
  %19 = load i32, ptr %8, align 4, !tbaa !36
  %20 = call i64 @mnew_from_me(ptr noundef %14, i64 noundef %15, i64 noundef %16, i64 noundef 36, i64 noundef %17, i64 noundef %18, i32 noundef %19)
  call void @llvm.lifetime.end.p0(i64 8, ptr %10) #25
  call void @llvm.lifetime.end.p0(i64 8, ptr %9) #25
  ret i64 %20
}

; Function Attrs: nounwind sspstrong uwtable
define internal i64 @rb_mod_instance_method(i64 noundef %0, i64 noundef %1) #0 {
  %3 = alloca i64, align 8
  %4 = alloca i64, align 8
  %5 = alloca i64, align 8
  store i64 %0, ptr %3, align 8, !tbaa !7
  store i64 %1, ptr %4, align 8, !tbaa !7
  call void @llvm.lifetime.start.p0(i64 8, ptr %5) #25
  %6 = call i64 @rb_check_id(ptr noundef %4)
  store i64 %6, ptr %5, align 8, !tbaa !7
  %7 = load i64, ptr %5, align 8, !tbaa !7
  %8 = icmp ne i64 %7, 0
  br i1 %8, label %12, label %9

9:                                                ; preds = %2
  %10 = load i64, ptr %3, align 8, !tbaa !7
  %11 = load i64, ptr %4, align 8, !tbaa !7
  call void @rb_method_name_error(i64 noundef %10, i64 noundef %11) #27
  unreachable

12:                                               ; preds = %2
  %13 = load i64, ptr %3, align 8, !tbaa !7
  %14 = load i64, ptr %5, align 8, !tbaa !7
  %15 = load i64, ptr @rb_cUnboundMethod, align 8, !tbaa !7
  %16 = call i64 @mnew_unbound(i64 noundef %13, i64 noundef %14, i64 noundef %15, i32 noundef 0)
  call void @llvm.lifetime.end.p0(i64 8, ptr %5) #25
  ret i64 %16
}