; Function Attrs: nounwind sspstrong uwtable
define internal i64 @rb_mod_instance_method(i64 noundef %0, i64 noundef %1) #0 {
  %3 = alloca i64, align 8
  %4 = alloca i64, align 8
  store i64 %1, ptr %4, align 8, !tbaa !36
  %5 = call i64 @rb_check_id(ptr noundef nonnull %4) #21
  %.not = icmp eq i64 %5, 0
  br i1 %.not, label %6, label %8

6:                                                ; preds = %2
  %7 = load i64, ptr %4, align 8, !tbaa !36
  call void @rb_method_name_error(i64 noundef %0, i64 noundef %7) #25
  unreachable

8:                                                ; preds = %2
  %9 = load i64, ptr @rb_cUnboundMethod, align 8, !tbaa !36
  call void @llvm.lifetime.start.p0(i64 8, ptr nonnull %3) #21
  store i64 4, ptr %3, align 8, !tbaa !36
  %10 = call ptr @rb_method_entry_with_refinements(i64 noundef %0, i64 noundef range(i64 1, 0) %5, ptr noundef nonnull %3) #21
  %11 = load i64, ptr %3, align 8, !tbaa !36
  %12 = call fastcc i64 @mnew_internal(ptr noundef %10, i64 noundef %0, i64 noundef %11, i64 noundef 36, i64 noundef range(i64 1, 0) %5, i64 noundef %9, i32 noundef range(i32 0, 2) 0, i32 noundef 1)
  call void @llvm.lifetime.end.p0(i64 8, ptr nonnull %3) #21
  ret i64 %12
}